; Function Attrs: nounwind uwtable
define hidden signext i8 @nfaInAcceptState(ptr noundef %0, i32 noundef %1, ptr noundef %2) local_unnamed_addr #0 {
  %4 = getelementptr inbounds nuw i8, ptr %0, i64 8
  %5 = load i8, ptr %4, align 8
  switch i8 %5, label %46 [
    i8 0, label %6
    i8 1, label %8
    i8 2, label %10
    i8 3, label %12
    i8 4, label %14
    i8 5, label %16
    i8 6, label %18
    i8 7, label %20
    i8 8, label %22
    i8 9, label %24
    i8 20, label %44
    i8 11, label %26
    i8 12, label %28
    i8 13, label %30
    i8 14, label %32
    i8 15, label %34
    i8 16, label %36
    i8 17, label %38
    i8 18, label %40
    i8 19, label %42
  ]

6:                                                ; preds = %3
  %7 = tail call signext i8 @nfaExecLimEx32_inAccept(ptr noundef nonnull %0, i32 noundef %1, ptr noundef %2) #3
  br label %46

8:                                                ; preds = %3
  %9 = tail call signext i8 @nfaExecLimEx64_inAccept(ptr noundef nonnull %0, i32 noundef %1, ptr noundef %2) #3
  br label %46

10:                                               ; preds = %3
  %11 = tail call signext i8 @nfaExecLimEx128_inAccept(ptr noundef nonnull %0, i32 noundef %1, ptr noundef %2) #3
  br label %46

12:                                               ; preds = %3
  %13 = tail call signext i8 @nfaExecLimEx256_inAccept(ptr noundef nonnull %0, i32 noundef %1, ptr noundef %2) #3
  br label %46

14:                                               ; preds = %3
  %15 = tail call signext i8 @nfaExecLimEx384_inAccept(ptr noundef nonnull %0, i32 noundef %1, ptr noundef %2) #3
  br label %46

16:                                               ; preds = %3
  %17 = tail call signext i8 @nfaExecLimEx512_inAccept(ptr noundef nonnull %0, i32 noundef %1, ptr noundef %2) #3
  br label %46

18:                                               ; preds = %3
  %19 = tail call signext i8 @nfaExecMcClellan8_inAccept(ptr noundef nonnull %0, i32 noundef %1, ptr noundef %2) #3
  br label %46

20:                                               ; preds = %3
  %21 = tail call signext i8 @nfaExecMcClellan16_inAccept(ptr noundef nonnull %0, i32 noundef %1, ptr noundef %2) #3
  br label %46

22:                                               ; preds = %3
  %23 = tail call signext i8 @nfaExecGough8_inAccept(ptr noundef nonnull %0, i32 noundef %1, ptr noundef %2) #3
  br label %46

24:                                               ; preds = %3
  %25 = tail call signext i8 @nfaExecGough16_inAccept(ptr noundef nonnull %0, i32 noundef %1, ptr noundef %2) #3
  br label %46

26:                                               ; preds = %3
  %27 = tail call signext i8 @nfaExecLbrDot_inAccept(ptr noundef nonnull %0, i32 noundef %1, ptr noundef %2) #3
  br label %46

28:                                               ; preds = %3
  %29 = tail call signext i8 @nfaExecLbrVerm_inAccept(ptr noundef nonnull %0, i32 noundef %1, ptr noundef %2) #3
  br label %46

30:                                               ; preds = %3
  %31 = tail call signext i8 @nfaExecLbrNVerm_inAccept(ptr noundef nonnull %0, i32 noundef %1, ptr noundef %2) #3
  br label %46

32:                                               ; preds = %3
  %33 = tail call signext i8 @nfaExecLbrShuf_inAccept(ptr noundef nonnull %0, i32 noundef %1, ptr noundef %2) #3
  br label %46

34:                                               ; preds = %3
  %35 = tail call signext i8 @nfaExecLbrTruf_inAccept(ptr noundef nonnull %0, i32 noundef %1, ptr noundef %2) #3
  br label %46

36:                                               ; preds = %3
  %37 = tail call signext i8 @nfaExecCastle_inAccept(ptr noundef nonnull %0, i32 noundef %1, ptr noundef %2) #3
  br label %46

38:                                               ; preds = %3
  %39 = tail call signext i8 @nfaExecSheng_inAccept(ptr noundef nonnull %0, i32 noundef %1, ptr noundef %2) #3
  br label %46

40:                                               ; preds = %3
  %41 = tail call signext i8 @nfaExecTamarama_inAccept(ptr noundef nonnull %0, i32 noundef %1, ptr noundef %2) #3
  br label %46

42:                                               ; preds = %3
  %43 = tail call signext i8 @nfaExecMcSheng8_inAccept(ptr noundef nonnull %0, i32 noundef %1, ptr noundef %2) #3
  br label %46

44:                                               ; preds = %3
  %45 = tail call signext i8 @nfaExecMcSheng16_inAccept(ptr noundef nonnull %0, i32 noundef %1, ptr noundef %2) #3
  br label %46

46:                                               ; preds = %3, %44, %42, %40, %38, %36, %34, %32, %30, %28, %26, %24, %22, %20, %18, %16, %14, %12, %10, %8, %6
  %.0 = phi i8 [ %45, %44 ], [ %43, %42 ], [ %41, %40 ], [ %39, %38 ], [ %37, %36 ], [ %35, %34 ], [ %33, %32 ], [ %31, %30 ], [ %29, %28 ], [ %27, %26 ], [ %25, %24 ], [ %23, %22 ], [ %21, %20 ], [ %19, %18 ], [ %17, %16 ], [ %15, %14 ], [ %13, %12 ], [ %11, %10 ], [ %9, %8 ], [ %7, %6 ], [ 0, %3 ]
  ret i8 %.0
}